; ModuleID = 'source-C-CXX/4/651.c'
source_filename = "source-C-CXX/4/651.c"
target datalayout = "e-m:e-p270:32:32-p271:32:32-p272:64:64-i64:64-f80:128-n8:16:32:64-S128"
target triple = "x86_64-pc-linux-gnu"

@.str = private unnamed_addr constant [4 x i8] c"%lf\00", align 1
@.str.1 = private unnamed_addr constant [5 x i8] c"%s%s\00", align 1
@.str.2 = private unnamed_addr constant [6 x i8] c"error\00", align 1
@.str.3 = private unnamed_addr constant [4 x i8] c"yes\00", align 1
@.str.4 = private unnamed_addr constant [3 x i8] c"no\00", align 1

; Function Attrs: nofree nounwind sspstrong uwtable
define dso_local i32 @main() local_unnamed_addr #0 {
  %1 = alloca double, align 8
  %2 = alloca [501 x i8], align 16
  %3 = alloca [501 x i8], align 16
  %4 = bitcast double* %1 to i8*
  call void @llvm.lifetime.start.p0i8(i64 8, i8* nonnull %4) #5
  %5 = getelementptr inbounds [501 x i8], [501 x i8]* %2, i64 0, i64 0
  call void @llvm.lifetime.start.p0i8(i64 501, i8* nonnull %5) #5
  %6 = getelementptr inbounds [501 x i8], [501 x i8]* %3, i64 0, i64 0
  call void @llvm.lifetime.start.p0i8(i64 501, i8* nonnull %6) #5
  %7 = call i32 (i8*, ...) @__isoc99_scanf(i8* getelementptr inbounds ([4 x i8], [4 x i8]* @.str, i64 0, i64 0), double* nonnull %1)
  %8 = call i32 (i8*, ...) @__isoc99_scanf(i8* getelementptr inbounds ([5 x i8], [5 x i8]* @.str.1, i64 0, i64 0), i8* nonnull %5, i8* nonnull %6)
  %9 = call i64 @strlen(i8* noundef nonnull %5) #6
  %10 = trunc i64 %9 to i32
  %11 = call i64 @strlen(i8* noundef nonnull %6) #6
  %12 = trunc i64 %11 to i32
  %13 = icmp eq i32 %10, %12
  br i1 %13, label %14, label %104

14:                                               ; preds = %0
  %15 = icmp sgt i32 %10, 0
  br i1 %15, label %16, label %96

16:                                               ; preds = %14
  %17 = shl i64 %9, 32
  %18 = ashr exact i64 %17, 32
  %19 = and i64 %9, 4294967295
  br label %20

20:                                               ; preds = %16, %25
  %21 = phi i64 [ 0, %16 ], [ %26, %25 ]
  %22 = phi i1 [ true, %16 ], [ %27, %25 ]
  %23 = getelementptr inbounds [501 x i8], [501 x i8]* %2, i64 0, i64 %21
  %24 = load i8, i8* %23, align 1, !tbaa !5
  switch i8 %24, label %29 [
    i8 65, label %25
    i8 67, label %25
    i8 84, label %25
    i8 71, label %25
  ]

25:                                               ; preds = %20, %20, %20, %20
  %26 = add nuw nsw i64 %21, 1
  %27 = icmp slt i64 %26, %18
  %28 = icmp eq i64 %26, %19
  br i1 %28, label %29, label %20, !llvm.loop !8

29:                                               ; preds = %25, %20
  %30 = phi i1 [ %27, %25 ], [ %22, %20 ]
  br i1 %15, label %31, label %41

31:                                               ; preds = %29
  %32 = and i64 %9, 4294967295
  br label %33

33:                                               ; preds = %31, %37
  %34 = phi i64 [ 0, %31 ], [ %38, %37 ]
  %35 = getelementptr inbounds [501 x i8], [501 x i8]* %3, i64 0, i64 %34
  %36 = load i8, i8* %35, align 1, !tbaa !5
  switch i8 %36, label %104 [
    i8 65, label %37
    i8 67, label %37
    i8 84, label %37
    i8 71, label %37
  ]

37:                                               ; preds = %33, %33, %33, %33
  %38 = add nuw nsw i64 %34, 1
  %39 = icmp eq i64 %38, %32
  br i1 %39, label %40, label %33, !llvm.loop !10

40:                                               ; preds = %37
  br i1 %30, label %104, label %42

41:                                               ; preds = %29
  br i1 %30, label %104, label %96

42:                                               ; preds = %40
  br i1 %15, label %43, label %96

43:                                               ; preds = %42
  %44 = and i64 %9, 4294967295
  %45 = icmp ult i64 %44, 8
  br i1 %45, label %77, label %46

46:                                               ; preds = %43
  %47 = and i64 %9, 7
  %48 = sub nsw i64 %44, %47
  br label %49

49:                                               ; preds = %49, %46
  %50 = phi i64 [ 0, %46 ], [ %71, %49 ]
  %51 = phi <4 x i32> [ zeroinitializer, %46 ], [ %69, %49 ]
  %52 = phi <4 x i32> [ zeroinitializer, %46 ], [ %70, %49 ]
  %53 = getelementptr inbounds [501 x i8], [501 x i8]* %2, i64 0, i64 %50
  %54 = bitcast i8* %53 to <4 x i8>*
  %55 = load <4 x i8>, <4 x i8>* %54, align 8, !tbaa !5
  %56 = getelementptr inbounds i8, i8* %53, i64 4
  %57 = bitcast i8* %56 to <4 x i8>*
  %58 = load <4 x i8>, <4 x i8>* %57, align 4, !tbaa !5
  %59 = getelementptr inbounds [501 x i8], [501 x i8]* %3, i64 0, i64 %50
  %60 = bitcast i8* %59 to <4 x i8>*
  %61 = load <4 x i8>, <4 x i8>* %60, align 8, !tbaa !5
  %62 = getelementptr inbounds i8, i8* %59, i64 4
  %63 = bitcast i8* %62 to <4 x i8>*
  %64 = load <4 x i8>, <4 x i8>* %63, align 4, !tbaa !5
  %65 = icmp eq <4 x i8> %55, %61
  %66 = icmp eq <4 x i8> %58, %64
  %67 = zext <4 x i1> %65 to <4 x i32>
  %68 = zext <4 x i1> %66 to <4 x i32>
  %69 = add <4 x i32> %51, %67
  %70 = add <4 x i32> %52, %68
  %71 = add nuw i64 %50, 8
  %72 = icmp eq i64 %71, %48
  br i1 %72, label %73, label %49, !llvm.loop !11

73:                                               ; preds = %49
  %74 = add <4 x i32> %70, %69
  %75 = call i32 @llvm.vector.reduce.add.v4i32(<4 x i32> %74)
  %76 = icmp eq i64 %47, 0
  br i1 %76, label %92, label %77

77:                                               ; preds = %43, %73
  %78 = phi i64 [ 0, %43 ], [ %48, %73 ]
  %79 = phi i32 [ 0, %43 ], [ %75, %73 ]
  br label %80

80:                                               ; preds = %77, %80
  %81 = phi i64 [ %90, %80 ], [ %78, %77 ]
  %82 = phi i32 [ %89, %80 ], [ %79, %77 ]
  %83 = getelementptr inbounds [501 x i8], [501 x i8]* %2, i64 0, i64 %81
  %84 = load i8, i8* %83, align 1, !tbaa !5
  %85 = getelementptr inbounds [501 x i8], [501 x i8]* %3, i64 0, i64 %81
  %86 = load i8, i8* %85, align 1, !tbaa !5
  %87 = icmp eq i8 %84, %86
  %88 = zext i1 %87 to i32
  %89 = add nuw nsw i32 %82, %88
  %90 = add nuw nsw i64 %81, 1
  %91 = icmp eq i64 %90, %44
  br i1 %91, label %92, label %80, !llvm.loop !13

92:                                               ; preds = %80, %73
  %93 = phi i32 [ %75, %73 ], [ %89, %80 ]
  %94 = sitofp i32 %93 to double
  %95 = sitofp i32 %10 to double
  br label %96

96:                                               ; preds = %41, %14, %92, %42
  %97 = phi double [ 0.000000e+00, %42 ], [ %95, %92 ], [ 0.000000e+00, %14 ], [ 0.000000e+00, %41 ]
  %98 = phi double [ 0.000000e+00, %42 ], [ %94, %92 ], [ 0.000000e+00, %14 ], [ 0.000000e+00, %41 ]
  %99 = fdiv double %98, %97
  %100 = load double, double* %1, align 8, !tbaa !15
  %101 = fcmp ult double %99, %100
  br i1 %101, label %102, label %104

102:                                              ; preds = %96
  %103 = fcmp olt double %99, %100
  br i1 %103, label %104, label %107

104:                                              ; preds = %33, %102, %96, %40, %0, %41
  %105 = phi i8* [ getelementptr inbounds ([6 x i8], [6 x i8]* @.str.2, i64 0, i64 0), %41 ], [ getelementptr inbounds ([6 x i8], [6 x i8]* @.str.2, i64 0, i64 0), %0 ], [ getelementptr inbounds ([6 x i8], [6 x i8]* @.str.2, i64 0, i64 0), %40 ], [ getelementptr inbounds ([4 x i8], [4 x i8]* @.str.3, i64 0, i64 0), %96 ], [ getelementptr inbounds ([3 x i8], [3 x i8]* @.str.4, i64 0, i64 0), %102 ], [ getelementptr inbounds ([6 x i8], [6 x i8]* @.str.2, i64 0, i64 0), %33 ]
  %106 = call i32 (i8*, ...) @printf(i8* nonnull dereferenceable(1) %105)
  br label %107

107:                                              ; preds = %104, %102
  call void @llvm.lifetime.end.p0i8(i64 501, i8* nonnull %6) #5
  call void @llvm.lifetime.end.p0i8(i64 501, i8* nonnull %5) #5
  call void @llvm.lifetime.end.p0i8(i64 8, i8* nonnull %4) #5
  ret i32 0
}

; Function Attrs: argmemonly mustprogress nofree nosync nounwind willreturn
declare void @llvm.lifetime.start.p0i8(i64 immarg, i8* nocapture) #1

; Function Attrs: nofree nounwind
declare noundef i32 @__isoc99_scanf(i8* nocapture noundef readonly, ...) local_unnamed_addr #2

; Function Attrs: argmemonly mustprogress nofree nounwind readonly willreturn
declare i64 @strlen(i8* nocapture) local_unnamed_addr #3

; Function Attrs: nofree nounwind
declare noundef i32 @printf(i8* nocapture noundef readonly, ...) local_unnamed_addr #2

; Function Attrs: argmemonly mustprogress nofree nosync nounwind willreturn
declare void @llvm.lifetime.end.p0i8(i64 immarg, i8* nocapture) #1

; Function Attrs: nofree nosync nounwind readnone willreturn
declare i32 @llvm.vector.reduce.add.v4i32(<4 x i32>) #4


!llvm.module.flags = !{!0, !1, !2, !3}
!llvm.ident = !{!4}

!0 = !{i32 1, !"wchar_size", i32 4}
!1 = !{i32 7, !"PIC Level", i32 2}
!2 = !{i32 7, !"PIE Level", i32 2}
!3 = !{i32 7, !"uwtable", i32 1}
!4 = !{!"clang version 13.0.0"}
!5 = !{!6, !6, i64 0}
!6 = !{!"omnipotent char", !7, i64 0}
!7 = !{!"Simple C/C++ TBAA"}
!8 = distinct !{!8, !9}
!9 = !{!"llvm.loop.mustprogress"}
!10 = distinct !{!10, !9}
!11 = distinct !{!11, !9, !12}
!12 = !{!"llvm.loop.isvectorized", i32 1}
!13 = distinct !{!13, !9, !14, !12}
!14 = !{!"llvm.loop.unroll.runtime.disable"}
!15 = !{!16, !16, i64 0}
!16 = !{!"double", !6, i64 0}
